; ModuleID = 'source-C-CXX/57/236.c'
source_filename = "source-C-CXX/57/236.c"
target datalayout = "e-m:e-p270:32:32-p271:32:32-p272:64:64-i64:64-f80:128-n8:16:32:64-S128"
target triple = "x86_64-pc-linux-gnu"

%struct._IO_FILE = type { i32, i8*, i8*, i8*, i8*, i8*, i8*, i8*, i8*, i8*, i8*, i8*, %struct._IO_marker*, %struct._IO_FILE*, i32, i32, i64, i16, i8, [1 x i8], i8*, i64, %struct._IO_codecvt*, %struct._IO_wide_data*, %struct._IO_FILE*, i8*, i64, i32, [20 x i8] }
%struct._IO_marker = type opaque
%struct._IO_codecvt = type opaque
%struct._IO_wide_data = type opaque

@.str = private unnamed_addr constant [3 x i8] c"%d\00", align 1
@stdin = external local_unnamed_addr global %struct._IO_FILE*, align 8
@str = private unnamed_addr constant [2 x i8] c"1\00", align 1
@str.4 = private unnamed_addr constant [2 x i8] c"0\00", align 1

; Function Attrs: nounwind sspstrong uwtable
define dso_local i32 @main() local_unnamed_addr #0 {
  %1 = alloca i32, align 4
  %2 = alloca [800 x i8], align 16
  %3 = alloca [800 x i8], align 16
  %4 = bitcast i32* %1 to i8*
  call void @llvm.lifetime.start.p0i8(i64 4, i8* nonnull %4) #7
  %5 = getelementptr inbounds [800 x i8], [800 x i8]* %2, i64 0, i64 0
  call void @llvm.lifetime.start.p0i8(i64 800, i8* nonnull %5) #7
  %6 = getelementptr inbounds [800 x i8], [800 x i8]* %3, i64 0, i64 0
  call void @llvm.lifetime.start.p0i8(i64 800, i8* nonnull %6) #7
  %7 = call i32 (i8*, ...) @__isoc99_scanf(i8* getelementptr inbounds ([3 x i8], [3 x i8]* @.str, i64 0, i64 0), i32* nonnull %1)
  %8 = call i32 (i8*, ...) bitcast (i32 (...)* @gets to i32 (i8*, ...)*)(i8* nonnull %6) #7
  %9 = call i8* @llvm.stacksave()
  %10 = load i32, i32* %1, align 4, !tbaa !5
  %11 = icmp sgt i32 %10, 0
  br i1 %11, label %12, label %59

12:                                               ; preds = %0, %55
  %13 = phi i32 [ %56, %55 ], [ 0, %0 ]
  %14 = call i32 (i8*, ...) bitcast (i32 (...)* @gets to i32 (i8*, ...)*)(i8* nonnull %5) #7
  %15 = call i64 @strlen(i8* noundef nonnull %5) #8
  %16 = trunc i64 %15 to i32
  %17 = load i8, i8* %5, align 16, !tbaa !9
  %18 = add i8 %17, -48
  %19 = icmp ult i8 %18, 10
  br i1 %19, label %46, label %20

20:                                               ; preds = %12
  %21 = icmp sgt i32 %16, 0
  br i1 %21, label %22, label %50

22:                                               ; preds = %20
  %23 = and i64 %15, 4294967295
  br label %24

24:                                               ; preds = %42, %22
  %25 = phi i8 [ %17, %22 ], [ %45, %42 ]
  %26 = phi i64 [ 0, %22 ], [ %40, %42 ]
  %27 = phi i32 [ 0, %22 ], [ %43, %42 ]
  %28 = icmp eq i8 %25, 95
  %29 = and i8 %25, -33
  %30 = add i8 %29, -65
  %31 = icmp ult i8 %30, 26
  %32 = or i1 %31, %28
  br i1 %32, label %39, label %33

33:                                               ; preds = %24
  %34 = icmp sgt i8 %25, 47
  br i1 %34, label %35, label %46

35:                                               ; preds = %33
  %36 = icmp slt i8 %25, 58
  %37 = icmp ne i64 %26, 0
  %38 = select i1 %36, i1 %37, i1 false
  br i1 %38, label %39, label %46

39:                                               ; preds = %35, %24
  %40 = add nuw nsw i64 %26, 1
  %41 = icmp eq i64 %40, %23
  br i1 %41, label %53, label %42, !llvm.loop !10

42:                                               ; preds = %39
  %43 = add nuw nsw i32 %27, 1
  %44 = getelementptr inbounds [800 x i8], [800 x i8]* %2, i64 0, i64 %40
  %45 = load i8, i8* %44, align 1, !tbaa !9
  br label %24

46:                                               ; preds = %33, %35, %12
  %47 = phi i8* [ getelementptr inbounds ([2 x i8], [2 x i8]* @str.4, i64 0, i64 0), %12 ], [ getelementptr inbounds ([2 x i8], [2 x i8]* @str.4, i64 0, i64 0), %35 ], [ getelementptr inbounds ([2 x i8], [2 x i8]* @str.4, i64 0, i64 0), %33 ]
  %48 = phi i32 [ 0, %12 ], [ %27, %35 ], [ %27, %33 ]
  %49 = call i32 @puts(i8* nonnull dereferenceable(1) %47)
  br label %50

50:                                               ; preds = %46, %20
  %51 = phi i32 [ 0, %20 ], [ %48, %46 ]
  %52 = icmp eq i32 %51, %16
  br i1 %52, label %53, label %55

53:                                               ; preds = %39, %50
  %54 = call i32 @puts(i8* nonnull dereferenceable(1) getelementptr inbounds ([2 x i8], [2 x i8]* @str, i64 0, i64 0))
  br label %55

55:                                               ; preds = %50, %53
  %56 = add nuw nsw i32 %13, 1
  %57 = load i32, i32* %1, align 4, !tbaa !5
  %58 = icmp slt i32 %56, %57
  br i1 %58, label %12, label %59, !llvm.loop !12

59:                                               ; preds = %55, %0
  %60 = load %struct._IO_FILE*, %struct._IO_FILE** @stdin, align 8, !tbaa !13
  %61 = call i32 @getc(%struct._IO_FILE* %60) #7
  call void @llvm.stackrestore(i8* %9)
  call void @llvm.lifetime.end.p0i8(i64 800, i8* nonnull %6) #7
  call void @llvm.lifetime.end.p0i8(i64 800, i8* nonnull %5) #7
  call void @llvm.lifetime.end.p0i8(i64 4, i8* nonnull %4) #7
  ret i32 0
}

; Function Attrs: argmemonly mustprogress nofree nosync nounwind willreturn
declare void @llvm.lifetime.start.p0i8(i64 immarg, i8* nocapture) #1

; Function Attrs: nofree nounwind
declare noundef i32 @__isoc99_scanf(i8* nocapture noundef readonly, ...) local_unnamed_addr #2

declare i32 @gets(...) local_unnamed_addr #3

; Function Attrs: mustprogress nofree nosync nounwind willreturn
declare i8* @llvm.stacksave() #4

; Function Attrs: argmemonly mustprogress nofree nounwind readonly willreturn
declare i64 @strlen(i8* nocapture) local_unnamed_addr #5

; Function Attrs: mustprogress nofree nosync nounwind willreturn
declare void @llvm.stackrestore(i8*) #4

; Function Attrs: argmemonly mustprogress nofree nosync nounwind willreturn
declare void @llvm.lifetime.end.p0i8(i64 immarg, i8* nocapture) #1

; Function Attrs: nofree nounwind
declare noundef i32 @getc(%struct._IO_FILE* nocapture noundef) local_unnamed_addr #2

; Function Attrs: nofree nounwind
declare noundef i32 @puts(i8* nocapture noundef readonly) local_unnamed_addr #6


!llvm.module.flags = !{!0, !1, !2, !3}
!llvm.ident = !{!4}

!0 = !{i32 1, !"wchar_size", i32 4}
!1 = !{i32 7, !"PIC Level", i32 2}
!2 = !{i32 7, !"PIE Level", i32 2}
!3 = !{i32 7, !"uwtable", i32 1}
!4 = !{!"clang version 13.0.0"}
!5 = !{!6, !6, i64 0}
!6 = !{!"int", !7, i64 0}
!7 = !{!"omnipotent char", !8, i64 0}
!8 = !{!"Simple C/C++ TBAA"}
!9 = !{!7, !7, i64 0}
!10 = distinct !{!10, !11}
!11 = !{!"llvm.loop.mustprogress"}
!12 = distinct !{!12, !11}
!13 = !{!14, !14, i64 0}
!14 = !{!"any pointer", !7, i64 0}
